(dp1
S'output'
p2
S"<type 'exceptions.NameError'> name 'title' is not defined"
p3
sS'layer'
p4
S'C:\\Users\\PIP\\Documents\\web2py\\web2py\\applications\\ez_wireframe\\views\\appadmin.html'
p5
sS'code'
p6
S'response.write(\'<!DOCTYPE html>\\r\\n<html lang="en">\\r\\n\\r\\n<head>\\r\\n\\r\\n  <meta charset="utf-8">\\r\\n  <meta http-equiv="X-UA-Compatible" content="IE=edge">\\r\\n  <meta name="viewport" content="width=device-width, initial-scale=1">\\r\\n  <meta name="description" content="">\\r\\n  <meta name="author" content="">\\r\\n\\r\\n <title>\', escape=False)\nresponse.write(title)\nresponse.write(\'</title>\\r\\n\\r\\n  <!-- Bootstrap Core CSS -->\\r\\n  <link rel="stylesheet" href="\', escape=False)\nresponse.write(URL(\'static\',\'css/bootstrap.min.css\'))\nresponse.write(\'"/>\\r\\n\\r\\n  <!-- Slick CSS -->\\r\\n  <link rel="stylesheet" href="\', escape=False)\nresponse.write(URL(\'static\',\'css/slick.css\'))\nresponse.write(\'"/>\\r\\n  <link rel="stylesheet" href="\', escape=False)\nresponse.write(URL(\'static\',\'css/slick-theme.css\'))\nresponse.write(\'"/>\\r\\n\\r\\n  <!-- Custom Fonts -->\\r\\n  <link rel="stylesheet" href="\', escape=False)\nresponse.write(URL(\'static\',\'vendor/font-awesome/css/font-awesome.min.css\'))\nresponse.write(\'"/>\\r\\n  <link href=\\\'https://fonts.googleapis.com/css?family=Open+Sans:300italic,400italic,600italic,700italic,800italic,400,300,600,700,800\\\' rel=\\\'stylesheet\\\' type=\\\'text/css\\\'>\\r\\n  <link href=\\\'https://fonts.googleapis.com/css?family=Merriweather:400,300,300italic,400italic,700,700italic,900,900italic\\\' rel=\\\'stylesheet\\\' type=\\\'text/css\\\'>\\r\\n\\r\\n  <!-- Plugin CSS -->\\r\\n  <link rel="stylesheet" href="\', escape=False)\nresponse.write(URL(\'static\',\'vendor/magnific-popup/magnific-popup.css\'))\nresponse.write(\'"/>\\r\\n  <!-- Theme CSS -->\\r\\n  <link rel="stylesheet" href="\', escape=False)\nresponse.write(URL(\'static\',\'css/creative.css\'))\nresponse.write(\'"/>\\r\\n  <link rel="shortcut icon" href="\', escape=False)\nresponse.write(URL(\'static\',\'images/favicon.ico\'))\nresponse.write(\'" type="image/x-icon">\\r\\n  <link rel="apple-touch-icon" href="\', escape=False)\nresponse.write(URL(\'static\',\'images/favicon.png\'))\nresponse.write(\'">\\r\\n\\r\\n  <!-- HTML5 Shim and Respond.js IE8 support of HTML5 elements and media queries -->\\r\\n  <!-- WARNING: Respond.js doesn\\\'t work if you view the page via file:// -->\\r\\n  <!--[if lt IE 9]>\\r\\n  <script src="https://oss.maxcdn.com/libs/html5shiv/3.7.0/html5shiv.js"></script>\\r\\n  <script src="https://oss.maxcdn.com/libs/respond.js/1.4.2/respond.min.js"></script>\\r\\n  <script src="\', escape=False)\nresponse.write(URL(\'static\',\'js/modernizr-2.8.3.min.js\'))\nresponse.write(\'"></script>\\r\\n  <script src="https://ajax.googleapis.com/ajax/libs/jquery/3.1.1/jquery.min.js"></script>\\r\\n\\r\\n  <!-- Slick -->\\r\\n    <script src="https://ajax.googleapis.com/ajax/libs/jquery/3.1.1/jquery.min.js"></script>\\r\\n    <script src="\', escape=False)\nresponse.write(URL(\'static\',\'js/slick.js\'))\nresponse.write(\'"></script>\\r\\n  <!--[if lt IE 9]>\\r\\n      <script src="\', escape=False)\nresponse.write(URL(\'static\',\'js/respond-1.4.2.min.js\'))\nresponse.write(\'"></script>\\r\\n<![endif]-->\\r\\n\', escape=False)\nresponse.write(\'\\r\\n<script><!--\\r\\n    jQuery(document).ready(function(){\\r\\n    jQuery("table.sortable tbody tr").mouseover( function() {\\r\\n    jQuery(this).addClass("highlight"); }).mouseout( function() {\\r\\n    jQuery(this).removeClass("highlight"); });\\r\\n    jQuery(\\\'table.sortable tbody tr:odd\\\').addClass(\\\'odd\\\');\\r\\n    jQuery(\\\'table.sortable tbody tr:even\\\').addClass(\\\'even\\\');\\r\\n});\\r\\n//--></script>\\r\\n\\r\\n\', escape=False)\nif request.function==\'index\':\n    response.write(\'\\r\\n<h2>\', escape=False)\n    response.write(T("Available Databases and Tables"))\n    response.write(\'</h2>\\r\\n  \', escape=False)\n    if not databases:\n        response.write(T("No databases in this application"))\n        pass\n    response.write(\'\\r\\n  <ul class="nav nav-tabs" id="myTab">\\r\\n  <li class="active" ><a href="#alltables" data-toggle="tab">Tables</a></li>\\r\\n  <li><a href="#hooks" data-toggle="tab">Hooks</a></li>\\r\\n  </ul>\\r\\n  <div class="tab-content">\\r\\n      <div class="tab-pane active" id="alltables">\\r\\n        <table class="table">\\r\\n          \', escape=False)\n    for db in sorted(databases):\n        response.write(\'\\r\\n            \', escape=False)\n        for table in databases[db].tables:\n            response.write(\'\\r\\n              \', escape=False)\n            qry=\'%s.%s.id>0\'%(db,table)\n            response.write(\'\\r\\n              \', escape=False)\n            tbl=databases[db][table]\n            response.write(\'\\r\\n              \', escape=False)\n            if hasattr(tbl,\'_primarykey\'):\n                response.write(\'\\r\\n                \', escape=False)\n                if tbl._primarykey:\n                    response.write(\'\\r\\n                    \', escape=False)\n                    firstkey=tbl[tbl._primarykey[0]]\n                    response.write(\'\\r\\n                    \', escape=False)\n                    if firstkey.type in [\'string\',\'text\']:\n                        response.write(\'\\r\\n                      \', escape=False)\n                        qry=\'%s.%s.%s!=""\'%(db,table,firstkey.name)\n                        response.write(\'\\r\\n                    \', escape=False)\n                    else:\n                        response.write(\'\\r\\n                      \', escape=False)\n                        qry=\'%s.%s.%s>0\'%(db,table,firstkey.name)\n                        response.write(\'\\r\\n                    \', escape=False)\n                        pass\n                    response.write(\'\\r\\n                \', escape=False)\n                else:\n                    response.write(\'\\r\\n                     \', escape=False)\n                    qry=\'\'\n                    response.write(\'\\r\\n                \', escape=False)\n                    pass\n                response.write(\'\\r\\n              \', escape=False)\n                pass\n            response.write(\'\\r\\n          <tr>\\r\\n            <th style="font-size: 1.75em;">\\r\\n              \', escape=False)\n            response.write(A("%s.%s" % (db,table),_href=URL(\'select\',args=[db],vars=dict(query=qry))))\n            response.write(\'\\r\\n            </th>\\r\\n            <td>\\r\\n              \', escape=False)\n            response.write(A(str(T(\'New Record\')),_href=URL(\'insert\',args=[db,table]),_class="btn btn-default"))\n            response.write(\'\\r\\n            </td>\\r\\n          </tr>\\r\\n          \', escape=False)\n            pass\n        response.write(\'\\r\\n          \', escape=False)\n        pass\n    response.write(\'\\r\\n        </table>\\r\\n      </div>\\r\\n      <div class="tab-pane" id="hooks">\\r\\n      \', escape=False)\n    response.write(LOAD(\'appadmin\', \'hooks\', ajax=True))\n    response.write(\'\\r\\n      </div>\\r\\n  </div>\\r\\n\', escape=False)\nelif request.function==\'select\':\n    response.write(\'\\r\\n  <h2>\', escape=False)\n    response.write(XML(str(T("Database %s select"))%A(request.args[0],_href=URL(\'index\'))))\n    response.write(\'\\r\\n  </h2>\\r\\n  \', escape=False)\n    if tb:\n        response.write(\'\\r\\n  <h3>\', escape=False)\n        response.write(T(\'Traceback\'))\n        response.write(\'</h3>\\r\\n  <pre>\\r\\n    \', escape=False)\n        response.write(tb)\n        response.write(\'\\r\\n  </pre>\\r\\n  \', escape=False)\n        pass\n    response.write(\'\\r\\n  \', escape=False)\n    if table:\n        response.write(\'\\r\\n  \', escape=False)\n        response.write(A(str(T(\'New Record\')),_href=URL(\'insert\',args=[request.args[0],table]),_class="btn btn-default"))\n        response.write(\'<br/><br/>\\r\\n    <h3>\', escape=False)\n        response.write(T("Rows in Table"))\n        response.write(\'</h3><br/>\\r\\n   \', escape=False)\n    else:\n        response.write(\'\\r\\n    <h3>\', escape=False)\n        response.write(T("Rows selected"))\n        response.write(\'</h3><br/>\\r\\n   \', escape=False)\n        pass\n    response.write(\'\\r\\n   \', escape=False)\n    response.write(form)\n    response.write(\'\\r\\n   <p>\', escape=False)\n    response.write(T(\'The "query" is a condition like "db.table1.field1==\\\'value\\\'". Something like "db.table1.field1==db.table2.field2" results in a SQL JOIN.\'))\n    response.write(\'<br/>\\r\\n      \', escape=False)\n    response.write(T(\'Use (...)&(...) for AND, (...)|(...) for OR, and ~(...)  for NOT to build more complex queries.\'))\n    response.write(\'<br/>\\r\\n      \', escape=False)\n    response.write(T(\'"update" is an optional expression like "field1=\\\'newvalue\\\'". You cannot update or delete the results of a JOIN\'))\n    response.write(\'</p>\\r\\n    <br/><br/>\\r\\n    <h4>\', escape=False)\n    response.write(T("%s selected", nrows))\n    response.write(\'</h4>\\r\\n    \', escape=False)\n    if start>0:\n        response.write(A(T(\'previous %s rows\') % step,_href=URL(\'select\',args=request.args[0],vars=dict(start=start-step)),_class="btn btn-default"))\n        pass\n    response.write(\'\\r\\n    \', escape=False)\n    if stop<nrows:\n        response.write(A(T(\'next %s rows\') % step,_href=URL(\'select\',args=request.args[0],vars=dict(start=start+step)),_class="btn btn-default"))\n        pass\n    response.write(\'\\r\\n    \', escape=False)\n    if rows:\n        response.write(\'\\r\\n       <div style="overflow:auto; width:80%;">\\r\\n       \', escape=False)\n        linkto = lambda f, t, r: URL(\'update\', args=[request.args[0], r, f]) if f else "#"\n        response.write(\'\\r\\n       \', escape=False)\n        upload=URL(\'download\',args=request.args[0])\n        response.write(\'\\r\\n       \', escape=False)\n        response.write(SQLTABLE(rows,linkto,upload,orderby=True,_class=\'sortable\'))\n        response.write(\'\\r\\n       </div>\\r\\n    \', escape=False)\n        pass\n    response.write(\'\\r\\n    <br/><br/><h3>\', escape=False)\n    response.write(T("Import/Export"))\n    response.write(\'</h3><br/>\\r\\n    <a href="\', escape=False)\n    response.write(URL(\'csv\',args=request.args[0],vars=dict(query=query)))\n    response.write(\'" class="btn btn-default">\', escape=False)\n    response.write(T("export as csv file"))\n    response.write(\'</a>\\r\\n  \', escape=False)\n    response.write(formcsv or \'\')\n    response.write(\'\\r\\n\\r\\n\', escape=False)\nelif request.function==\'insert\':\n    response.write(\'\\r\\n  <h2>\', escape=False)\n    response.write(T("Database"))\n    response.write(\' \', escape=False)\n    response.write(A(request.args[0],_href=URL(\'index\')))\n    response.write(\'\\r\\n    \', escape=False)\n    if hasattr(table,\'_primarykey\'):\n        response.write(\'\\r\\n      \', escape=False)\n        fieldname=table._primarykey[0]\n        response.write(\'\\r\\n      \', escape=False)\n        dbname=request.args[0]\n        response.write(\'\\r\\n      \', escape=False)\n        tablename=request.args[1]\n        response.write(\'\\r\\n      \', escape=False)\n        cond = table[fieldname].type in [\'string\',\'text\'] and \'!=""\' or \'>0\'\n        response.write(\'\\r\\n      \', escape=False)\n        response.write(T("Table"))\n        response.write(\' \', escape=False)\n        response.write(A(tablename,_href=URL(\'select\',args=dbname,vars=dict(query=\'%s.%s.%s%s\'%(dbname,tablename,fieldname,cond)))))\n        response.write(\'\\r\\n    \', escape=False)\n    else:\n        response.write(\'\\r\\n      \', escape=False)\n        response.write(T("Table"))\n        response.write(\' \', escape=False)\n        response.write(A(request.args[1],_href=URL(\'select\',args=request.args[0],vars=dict(query=\'%s.%s.id>0\'%tuple(request.args[:2])))))\n        response.write(\'\\r\\n    \', escape=False)\n        pass\n    response.write(\'\\r\\n  </h2>\\r\\n  <h3>\', escape=False)\n    response.write(T("New Record"))\n    response.write(\'</h3><br/>\\r\\n  \', escape=False)\n    response.write(form)\n    response.write(\'\\r\\n\', escape=False)\nelif request.function==\'update\':\n    response.write(\'\\r\\n  <h2>\', escape=False)\n    response.write(T("Database"))\n    response.write(\' \', escape=False)\n    response.write(A(request.args[0],_href=URL(\'index\')))\n    response.write(\'\\r\\n    \', escape=False)\n    if hasattr(table,\'_primarykey\'):\n        response.write(\'\\r\\n      \', escape=False)\n        fieldname=request.vars.keys()[0]\n        response.write(\'\\r\\n      \', escape=False)\n        dbname=request.args[0]\n        response.write(\'\\r\\n      \', escape=False)\n        tablename=request.args[1]\n        response.write(\'\\r\\n      \', escape=False)\n        cond = table[fieldname].type in [\'string\',\'text\'] and \'!=""\' or \'>0\'\n        response.write(\'\\r\\n      \', escape=False)\n        response.write(T("Table"))\n        response.write(\' \', escape=False)\n        response.write(A(tablename,_href=URL(\'select\',args=dbname,vars=dict(query=\'%s.%s.%s%s\'%(dbname,tablename,fieldname,cond)))))\n        response.write(\'\\r\\n      \', escape=False)\n        response.write(T("Record"))\n        response.write(\' \', escape=False)\n        response.write(A(\'%s=%s\'%request.vars.items()[0],_href=URL(\'update\',args=request.args[:2],vars=request.vars)))\n        response.write(\'\\r\\n    \', escape=False)\n    else:\n        response.write(\'\\r\\n      \', escape=False)\n        response.write(T("Table"))\n        response.write(\' \', escape=False)\n        response.write(A(request.args[1],_href=URL(\'select\',args=request.args[0],vars=dict(query=\'%s.%s.id>0\'%tuple(request.args[:2])))))\n        response.write(\'\\r\\n      \', escape=False)\n        response.write(T("Record id"))\n        response.write(\' \', escape=False)\n        response.write(A(request.args[2],_href=URL(\'update\',args=request.args[:3])))\n        response.write(\'\\r\\n    \', escape=False)\n        pass\n    response.write(\'\\r\\n  </h2>\\r\\n  <h3>\', escape=False)\n    response.write(T("Edit current record"))\n    response.write(\'</h3><br/><br/>\', escape=False)\n    response.write(form)\n    response.write(\'\\r\\n\\r\\n\', escape=False)\nelif request.function==\'state\':\n    response.write(\'\\r\\n  <h2>\', escape=False)\n    response.write(T("Internal State"))\n    response.write(\'</h2>\\r\\n  <h3>\', escape=False)\n    response.write(T("Current request"))\n    response.write(\'</h3>\\r\\n  \', escape=False)\n    response.write(BEAUTIFY(request))\n    response.write(\'\\r\\n  <br/><h3>\', escape=False)\n    response.write(T("Current response"))\n    response.write(\'</h3>\\r\\n  \', escape=False)\n    response.write(BEAUTIFY(response))\n    response.write(\'\\r\\n  <br/><h3>\', escape=False)\n    response.write(T("Current session"))\n    response.write(\'</h3>\\r\\n  \', escape=False)\n    response.write(BEAUTIFY(session))\n    response.write(\'\\r\\n\\r\\n\\r\\n\', escape=False)\nelif request.function == \'ccache\':\n    response.write(\'\\r\\n<h2>\', escape=False)\n    T("Cache")\n    response.write(\'</h2>\\r\\n<div class="list">\\r\\n\\r\\n  <div class="list-header">\\r\\n    <h3>\', escape=False)\n    T("Statistics")\n    response.write(\'</h3>\\r\\n  </div>\\r\\n\\r\\n  <div class="content">\\r\\n    <h4>\', escape=False)\n    response.write(T("Overview"))\n    response.write(\'</h4>\\r\\n    <p>\', escape=False)\n    response.write(T.M("Number of entries: **%s**", total[\'entries\']))\n    response.write(\'</p>\\r\\n    \', escape=False)\n    if total[\'entries\'] > 0:\n        response.write(\'\\r\\n    <p>\', escape=False)\n        response.write(T.M("Hit Ratio: **%(ratio)s%%** (**%(hits)s** %%{hit(hits)} and **%(misses)s** %%{miss(misses)})",\n        dict( ratio=total[\'ratio\'], hits=total[\'hits\'], misses=total[\'misses\'])))\n        response.write(\'\\r\\n    </p>\\r\\n    <p>\\r\\n      \', escape=False)\n        response.write(T("Size of cache:"))\n        response.write(\'\\r\\n      \', escape=False)\n        if object_stats:\n            response.write(\'\\r\\n        \', escape=False)\n            response.write(T.M("**%(items)s** %%{item(items)}, **%(bytes)s** %%{byte(bytes)}", dict(items=total[\'objects\'], bytes=total[\'bytes\'])))\n            response.write(\'\\r\\n        \', escape=False)\n            if total[\'bytes\'] > 524287:\n                response.write(\'\\r\\n          \', escape=False)\n                response.write(T.M("(**%.0d MB**)", total[\'bytes\'] / 1048576))\n                response.write(\'\\r\\n        \', escape=False)\n                pass\n            response.write(\'\\r\\n      \', escape=False)\n        else:\n            response.write(\'\\r\\n        \', escape=False)\n            response.write(T.M("**not available** (requires the Python [[guppy http://pypi.python.org/pypi/guppy/ popup]] library)"))\n            response.write(\'\\r\\n      \', escape=False)\n            pass\n        response.write(\'\\r\\n    </p>\\r\\n    <p>\\r\\n      \', escape=False)\n        response.write(T.M("Cache contains items up to **%(hours)02d** %%{hour(hours)} **%(min)02d** %%{minute(min)} **%(sec)02d** %%{second(sec)} old.",\n        dict(hours=total[\'oldest\'][0], min=total[\'oldest\'][1], sec=total[\'oldest\'][2])))\n        response.write(\'\\r\\n    </p>\\r\\n    \', escape=False)\n        response.write(BUTTON(T(\'Cache Keys\'), _onclick=\'jQuery("#all_keys").toggle().toggleClass( "w2p_hidden" );\'))\n        response.write(\'\\r\\n    <div class="w2p_hidden" id="all_keys">\\r\\n      \', escape=False)\n        response.write(total[\'keys\'])\n        response.write(\'\\r\\n    </div>\\r\\n    <br />\\r\\n    \', escape=False)\n        pass\n    response.write(\'\\r\\n\\r\\n    <h4>\', escape=False)\n    response.write(T("RAM"))\n    response.write(\'</h4>\\r\\n    <p>\', escape=False)\n    response.write(T.M("Number of entries: **%s**", ram[\'entries\']))\n    response.write(\'</p>\\r\\n    \', escape=False)\n    if ram[\'entries\'] > 0:\n        response.write(\'\\r\\n    <p>\', escape=False)\n        response.write(T.M("Hit Ratio: **%(ratio)s%%** (**%(hits)s** %%{hit(hits)} and **%(misses)s** %%{miss(misses)})",\n        dict( ratio=ram[\'ratio\'], hits=ram[\'hits\'], misses=ram[\'misses\'])))\n        response.write(\'\\r\\n    </p>\\r\\n    <p>\\r\\n      \', escape=False)\n        response.write(T("Size of cache:"))\n        response.write(\'\\r\\n      \', escape=False)\n        if object_stats:\n            response.write(\'\\r\\n        \', escape=False)\n            response.write(T.M("**%(items)s** items, **%(bytes)s** %%{byte(bytes)}", dict(items=ram[\'objects\'], bytes=ram[\'bytes\'])))\n            response.write(\'\\r\\n        \', escape=False)\n            if ram[\'bytes\'] > 524287:\n                response.write(\'\\r\\n          \', escape=False)\n                response.write(T.M("(**%.0d MB**)", ram[\'bytes\'] / 10485576))\n                response.write(\'\\r\\n        \', escape=False)\n                pass\n            response.write(\'\\r\\n      \', escape=False)\n        else:\n            response.write(\'\\r\\n        \', escape=False)\n            response.write(T.M("``**not available**``:red (requires the Python [[guppy http://pypi.python.org/pypi/guppy/ popup]] library)"))\n            response.write(\'\\r\\n      \', escape=False)\n            pass\n        response.write(\'\\r\\n    </p>\\r\\n    <p>\\r\\n      \', escape=False)\n        response.write(T.M("RAM contains items up to **%(hours)02d** %%{hour(hours)} **%(min)02d** %%{minute(min)} **%(sec)02d** %%{second(sec)} old.",\n        dict(hours=ram[\'oldest\'][0], min=ram[\'oldest\'][1], sec=ram[\'oldest\'][2])))\n        response.write(\'\\r\\n    </p>\\r\\n    \', escape=False)\n        response.write(BUTTON(T(\'RAM Cache Keys\'), _onclick=\'jQuery("#ram_keys").toggle().toggleClass( "w2p_hidden" );\'))\n        response.write(\'\\r\\n    <div class="w2p_hidden" id="ram_keys">\\r\\n      \', escape=False)\n        response.write(ram[\'keys\'])\n        response.write(\'\\r\\n    </div>\\r\\n    <br />\\r\\n    \', escape=False)\n        pass\n    response.write(\'\\r\\n\\r\\n    <h4>\', escape=False)\n    response.write(T("DISK"))\n    response.write(\'</h4>\\r\\n    <p>\', escape=False)\n    response.write(T.M("Number of entries: **%s**", disk[\'entries\']))\n    response.write(\'</p>\\r\\n    \', escape=False)\n    if disk[\'entries\'] > 0:\n        response.write(\'\\r\\n      <p>\\r\\n      \', escape=False)\n        response.write(T.M("Hit Ratio: **%(ratio)s%%** (**%(hits)s** %%{hit(hits)} and **%(misses)s** %%{miss(misses)})",\n        dict(ratio=disk[\'ratio\'], hits=disk[\'hits\'], misses=disk[\'misses\'])))\n        response.write(\'\\r\\n      </p>\\r\\n      <p>\\r\\n      \', escape=False)\n        response.write(T("Size of cache:"))\n        response.write(\'\\r\\n      \', escape=False)\n        if object_stats:\n            response.write(\'\\r\\n        \', escape=False)\n            response.write(T.M("**%(items)s** %%{item(items)}, **%(bytes)s** %%{byte(bytes)}", dict( items=disk[\'objects\'], bytes=disk[\'bytes\'])))\n            response.write(\'\\r\\n        \', escape=False)\n            if disk[\'bytes\'] > 524287:\n                response.write(\'\\r\\n          \', escape=False)\n                response.write(T.M("(**%.0d MB**)", disk[\'bytes\'] / 1048576))\n                response.write(\'\\r\\n        \', escape=False)\n                pass\n            response.write(\'\\r\\n      \', escape=False)\n        else:\n            response.write(\'\\r\\n        \', escape=False)\n            response.write(T.M("``**not available**``:red (requires the Python [[guppy http://pypi.python.org/pypi/guppy/ popup]] library)"))\n            response.write(\'\\r\\n      \', escape=False)\n            pass\n        response.write(\'\\r\\n      </p>\\r\\n      <p>\\r\\n      \', escape=False)\n        response.write(T.M("DISK contains items up to **%(hours)02d** %%{hour(hours)} **%(min)02d** %%{minute(min)} **%(sec)02d** %%{second(sec)} old.",\n        dict(hours=disk[\'oldest\'][0], min=disk[\'oldest\'][1], sec=disk[\'oldest\'][2])))\n        response.write(\'\\r\\n      </p>\\r\\n      \', escape=False)\n        response.write(BUTTON(T(\'Disk Cache Keys\'), _onclick=\'jQuery("#disk_keys").toggle().toggleClass( "w2p_hidden" );\'))\n        response.write(\'\\r\\n      <div class="w2p_hidden" id="disk_keys">\\r\\n      \', escape=False)\n        response.write(disk[\'keys\'])\n        response.write(\'\\r\\n      </div>\\r\\n      <br />\\r\\n    \', escape=False)\n        pass\n    response.write(\'\\r\\n  </div>\\r\\n\\r\\n  <div class="list-header">\\r\\n    <h3>\', escape=False)\n    response.write(T("Manage Cache"))\n    response.write(\'</h3>\\r\\n  </div>\\r\\n\\r\\n  <div class="content">\\r\\n    <p>\\r\\n      \', escape=False)\n    response.write(form)\n    response.write(\'\\r\\n    </p>\\r\\n  </div>\\r\\n</div>\\r\\n<div class="clear"></div>\\r\\n\', escape=False)\n    pass\nresponse.write(\'\\r\\n\\r\\n\', escape=False)\nif request.function==\'graph_model\':\n    response.write(\'\\r\\n<h2>\', escape=False)\n    response.write(T("Graph Model"))\n    response.write(\'</h2>\\r\\n  \', escape=False)\n    if not pgv:\n        response.write(\'\\r\\n    \', escape=False)\n        response.write(T(\'pygraphviz library not found\'))\n        response.write(\'\\r\\n  \', escape=False)\n    elif not databases:\n        response.write(\'\\r\\n    \', escape=False)\n        response.write(T("No databases in this application"))\n        response.write(\'\\r\\n  \', escape=False)\n    else:\n        response.write(\'\\t   \\r\\n    <div class="btn-group">\\r\\n      <a class="btn dropdown-toggle" data-toggle="dropdown" href="#">\\r\\n        <i class="icon-download"></i> \', escape=False)\n        response.write(T(\'Save model as...\'))\n        response.write(\'\\r\\n        <span class="caret"></span>\\r\\n      </a>\\r\\n      <ul class="dropdown-menu">\\r\\n          <li><a href="\', escape=False)\n        response.write(URL(\'appadmin\', \'bg_graph_model\', args=[\'png\']))\n        response.write(\'">png</a></li>\\r\\n          <li><a href="\', escape=False)\n        response.write(URL(\'appadmin\', \'bg_graph_model\', args=[\'svg\']))\n        response.write(\'">svg</a></li>\\r\\n          <li><a href="\', escape=False)\n        response.write(URL(\'appadmin\', \'bg_graph_model\', args=[\'pdf\']))\n        response.write(\'">pdf</a></li>\\r\\n          <li><a href="\', escape=False)\n        response.write(URL(\'appadmin\', \'bg_graph_model\', args=[\'ps\']))\n        response.write(\'">ps</a></li>\\r\\n          <li><a href="\', escape=False)\n        response.write(URL(\'appadmin\', \'bg_graph_model\', args=[\'dot\']))\n        response.write(\'">dot</a></li>\\r\\n      </ul>\\r\\n    </div>\\r\\n    <br />\\r\\n    \', escape=False)\n        response.write(IMG(_src=URL(\'appadmin\', \'bg_graph_model\')))\n        response.write(\'\\r\\n  \', escape=False)\n        pass\n    response.write(\'\\r\\n\', escape=False)\n    pass\nresponse.write(\'\\r\\n\\r\\n\', escape=False)\nif request.function == \'manage\':\n    response.write(\'\\r\\n<h2>\', escape=False)\n    response.write(heading)\n    response.write(\'</h2>\\r\\n<ul class="nav nav-tabs">\\r\\n  \', escape=False)\n    for k, tablename in enumerate(tablenames):\n        response.write(\'\\r\\n  <li\', escape=False)\n        response.write(XML(\' class="active"\') if k == 0 else \'\')\n        response.write(\'>\\r\\n    <a href="#table-\', escape=False)\n        response.write(tablename)\n        response.write(\'" data-toggle="tab">\', escape=False)\n        response.write(labels[k])\n        response.write(\'</a>\\r\\n  </li>\\r\\n  \', escape=False)\n        pass\n    response.write(\'\\r\\n</ul>\\r\\n\\r\\n<div class="tab-content">\\r\\n  \', escape=False)\n    for k, tablename in enumerate(tablenames):\n        response.write(\'\\r\\n  <div class="tab-pane\', escape=False)\n        response.write(XML(\' active\') if k == 0 else \'\')\n        response.write(\'" id="table-\', escape=False)\n        response.write(tablename)\n        response.write(\'">\\r\\n    \', escape=False)\n        response.write(LOAD(f=\'manage.load\', args=[request.args(0), k], ajax=True))\n        response.write(\'\\r\\n  </div>\\r\\n  \', escape=False)\n        pass\n    response.write(\'\\r\\n</div>\\r\\n\', escape=False)\n    pass\nresponse.write(\'\\r\\n\', escape=False)\nresponse.write(\'\\r\\n\', escape=False)'
p7
sS'snapshot'
p8
(dp9
S'exception'
p10
(dp11
S'__hash__'
p12
S"<method-wrapper '__hash__' of exceptions.NameError object>"
p13
sS'__setattr__'
p14
S"<method-wrapper '__setattr__' of exceptions.NameError object>"
p15
sS'__reduce_ex__'
p16
S'<built-in method __reduce_ex__ of exceptions.NameError object>'
p17
sS'__getslice__'
p18
S"<method-wrapper '__getslice__' of exceptions.NameError object>"
p19
sS'__getitem__'
p20
S"<method-wrapper '__getitem__' of exceptions.NameError object>"
p21
sS'__setstate__'
p22
S'<built-in method __setstate__ of exceptions.NameError object>'
p23
sS'__reduce__'
p24
S'<built-in method __reduce__ of exceptions.NameError object>'
p25
sS'__str__'
p26
S"<method-wrapper '__str__' of exceptions.NameError object>"
p27
sS'__format__'
p28
S'<built-in method __format__ of exceptions.NameError object>'
p29
sS'__getattribute__'
p30
S"<method-wrapper '__getattribute__' of exceptions.NameError object>"
p31
sS'__class__'
p32
S"<type 'exceptions.NameError'>"
p33
sS'__unicode__'
p34
S'<built-in method __unicode__ of exceptions.NameError object>'
p35
sS'__delattr__'
p36
S"<method-wrapper '__delattr__' of exceptions.NameError object>"
p37
sS'__subclasshook__'
p38
S'<built-in method __subclasshook__ of type object>'
p39
sS'__repr__'
p40
S"<method-wrapper '__repr__' of exceptions.NameError object>"
p41
sS'__dict__'
p42
S'{}'
p43
sS'args'
p44
S'("name \'title\' is not defined",)'
p45
sS'__sizeof__'
p46
S'<built-in method __sizeof__ of exceptions.NameError object>'
p47
sS'__doc__'
p48
S"'Name not found globally.'"
p49
sS'__init__'
p50
S"<method-wrapper '__init__' of exceptions.NameError object>"
p51
sS'__new__'
p52
S'<built-in method __new__ of type object>'
p53
ssS'evalue'
p54
S"name 'title' is not defined"
p55
sS'request'
p56
cgluon.html
XML_unpickle
p57
(S's\rY\x00\x00<div><table><tr><td style="font-weight:bold;vertical-align:top;">ajax</td><td style="vertical-align:top;">:</td><td><div>False</div></td></tr><tr><td style="font-weight:bold;vertical-align:top;">application</td><td style="vertical-align:top;">:</td><td><div>ez_wireframe</div></td></tr><tr><td style="font-weight:bold;vertical-align:top;">args</td><td style="vertical-align:top;">:</td><td><div><table></table></div></td></tr><tr><td style="font-weight:bold;vertical-align:top;">cid</td><td style="vertical-align:top;">:</td><td><div>None</div></td></tr><tr><td style="font-weight:bold;vertical-align:top;">client</td><td style="vertical-align:top;">:</td><td><div>127.0.0.1</div></td></tr><tr><td style="font-weight:bold;vertical-align:top;">controller</td><td style="vertical-align:top;">:</td><td><div>appadmin</div></td></tr><tr><td style="font-weight:bold;vertical-align:top;">cookies</td><td style="vertical-align:top;">:</td><td><div><table><tr><td style="font-weight:bold;vertical-align:top;">session_id_admin</td><td style="vertical-align:top;">:</td><td><div>127.0.0.1-76f114ff-5702-4857-bab2-9cdc3462480a<table><tr><td style="font-weight:bold;vertical-align:top;">comment</td><td style="vertical-align:top;">:</td><td><div></div></td></tr><tr><td style="font-weight:bold;vertical-align:top;">domain</td><td style="vertical-align:top;">:</td><td><div></div></td></tr><tr><td style="font-weight:bold;vertical-align:top;">expires</td><td style="vertical-align:top;">:</td><td><div></div></td></tr><tr><td style="font-weight:bold;vertical-align:top;">httponly</td><td style="vertical-align:top;">:</td><td><div></div></td></tr><tr><td style="font-weight:bold;vertical-align:top;">max-age</td><td style="vertical-align:top;">:</td><td><div></div></td></tr><tr><td style="font-weight:bold;vertical-align:top;">path</td><td style="vertical-align:top;">:</td><td><div></div></td></tr><tr><td style="font-weight:bold;vertical-align:top;">secure</td><td style="vertical-align:top;">:</td><td><div></div></td></tr><tr><td style="font-weight:bold;vertical-align:top;">version</td><td style="vertical-align:top;">:</td><td><div></div></td></tr></table></div></td></tr><tr><td style="font-weight:bold;vertical-align:top;">session_id_welcome</td><td style="vertical-align:top;">:</td><td><div>127.0.0.1-6fb4205e-c7e6-4c69-9f39-473a82085f18<table><tr><td style="font-weight:bold;vertical-align:top;">comment</td><td style="vertical-align:top;">:</td><td><div></div></td></tr><tr><td style="font-weight:bold;vertical-align:top;">domain</td><td style="vertical-align:top;">:</td><td><div></div></td></tr><tr><td style="font-weight:bold;vertical-align:top;">expires</td><td style="vertical-align:top;">:</td><td><div></div></td></tr><tr><td style="font-weight:bold;vertical-align:top;">httponly</td><td style="vertical-align:top;">:</td><td><div></div></td></tr><tr><td style="font-weight:bold;vertical-align:top;">max-age</td><td style="vertical-align:top;">:</td><td><div></div></td></tr><tr><td style="font-weight:bold;vertical-align:top;">path</td><td style="vertical-align:top;">:</td><td><div></div></td></tr><tr><td style="font-weight:bold;vertical-align:top;">secure</td><td style="vertical-align:top;">:</td><td><div></div></td></tr><tr><td style="font-weight:bold;vertical-align:top;">version</td><td style="vertical-align:top;">:</td><td><div></div></td></tr></table></div></td></tr></table></div></td></tr><tr><td style="font-weight:bold;vertical-align:top;">env</td><td style="vertical-align:top;">:</td><td><div><table><tr><td style="font-weight:bold;vertical-align:top;">HTTP_ACCEPT</td><td style="vertical-align:top;">:</td><td><div>text/html,application/xhtml+xml,application/xml;q=0.9,*/*;q=0.8</div></td></tr><tr><td style="font-weight:bold;vertical-align:top;">HTTP_ACCEPT_ENCODING</td><td style="vertical-align:top;">:</td><td><div>gzip, deflate</div></td></tr><tr><td style="font-weight:bold;vertical-align:top;">HTTP_ACCEPT_LANGUAGE</td><td style="vertical-align:top;">:</td><td><div>en-US,en;q=0.5</div></td></tr><tr><td style="font-weight:bold;vertical-align:top;">HTTP_CONNECTION</td><td style="vertical-align:top;">:</td><td><div>keep-alive</div></td></tr><tr><td style="font-weight:bold;vertical-align:top;">HTTP_COOKIE</td><td style="vertical-align:top;">:</td><td><div>session_id_welcome=127.0.0.1-6fb4205e-c7e6-4c69-9f39-473a82085f18; session_id_admin=127.0.0.1-76f114ff-5702-4857-bab2-9cdc3462480a</div></td></tr><tr><td style="font-weight:bold;vertical-align:top;">HTTP_HOST</td><td style="vertical-align:top;">:</td><td><div>127.0.0.1:8000</div></td></tr><tr><td style="font-weight:bold;vertical-align:top;">HTTP_REFERER</td><td style="vertical-align:top;">:</td><td><div>http://127.0.0.1:8000/admin/default/design/ez_wireframe</div></td></tr><tr><td style="font-weight:bold;vertical-align:top;">HTTP_UPGRADE_INSECURE_REQUESTS</td><td style="vertical-align:top;">:</td><td><div>1</div></td></tr><tr><td style="font-weight:bold;vertical-align:top;">HTTP_USER_AGENT</td><td style="vertical-align:top;">:</td><td><div>Mozilla/5.0 (Windows NT 6.3; WOW64; rv:50.0) Gecko/20100101 Firefox/50.0</div></td></tr><tr><td style="font-weight:bold;vertical-align:top;">PATH_INFO</td><td style="vertical-align:top;">:</td><td><div>/ez_wireframe/appadmin/index</div></td></tr><tr><td style="font-weight:bold;vertical-align:top;">QUERY_STRING</td><td style="vertical-align:top;">:</td><td><div></div></td></tr><tr><td style="font-weight:bold;vertical-align:top;">REMOTE_ADDR</td><td style="vertical-align:top;">:</td><td><div>127.0.0.1</div></td></tr><tr><td style="font-weight:bold;vertical-align:top;">REMOTE_PORT</td><td style="vertical-align:top;">:</td><td><div>2808</div></td></tr><tr><td style="font-weight:bold;vertical-align:top;">REQUEST_METHOD</td><td style="vertical-align:top;">:</td><td><div>GET</div></td></tr><tr><td style="font-weight:bold;vertical-align:top;">SCRIPT_NAME</td><td style="vertical-align:top;">:</td><td><div></div></td></tr><tr><td style="font-weight:bold;vertical-align:top;">SERVER_NAME</td><td style="vertical-align:top;">:</td><td><div>K</div></td></tr><tr><td style="font-weight:bold;vertical-align:top;">SERVER_PORT</td><td style="vertical-align:top;">:</td><td><div>8000</div></td></tr><tr><td style="font-weight:bold;vertical-align:top;">SERVER_PROTOCOL</td><td style="vertical-align:top;">:</td><td><div>HTTP/1.1</div></td></tr><tr><td style="font-weight:bold;vertical-align:top;">SERVER_SOFTWARE</td><td style="vertical-align:top;">:</td><td><div>Rocket 1.2.6</div></td></tr><tr><td style="font-weight:bold;vertical-align:top;">app_folders</td><td style="vertical-align:top;">:</td><td><div>set([&#x27;C:\\\\Users\\\\PIP\\\\Documents\\\\web2py\\\\web2py\\\\applications\\\\admin\\\\&#x27;, &#x27;C:\\\\Users\\\\PIP\\\\Documents\\\\web2py\\\\web2py\\\\applications\\\\ez_wireframe\\\\&#x27;, &#x27;C:\\\\Users\\\\PIP\\\\Documents\\\\web2py\\\\web2py\\\\applications\\\\welcome\\\\&#x27;])</div></td></tr><tr><td style="font-weight:bold;vertical-align:top;">applications_parent</td><td style="vertical-align:top;">:</td><td><div>C:\\Users\\PIP\\Documents\\web2py\\web2py</div></td></tr><tr><td style="font-weight:bold;vertical-align:top;">cmd_args</td><td style="vertical-align:top;">:</td><td><div><table></table></div></td></tr><tr><td style="font-weight:bold;vertical-align:top;">cmd_options</td><td style="vertical-align:top;">:</td><td><div>&lt;Values at 0x378ce88: {&#x27;verbose&#x27;: False, &#x27;ip&#x27;: &#x27;127.0.0.1&#x27;, &#x27;debuglevel&#x27;: 30, &#x27;with_scheduler&#x27;: False, &#x27;shutdown_timeout&#x27;: 5, &#x27;taskbar&#x27;: False, &#x27;with_coverage&#x27;: False, &#x27;pid_filename&#x27;: &#x27;httpserver.pid&#x27;, &#x27;maxthreads&#x27;: None, &#x27;softcron&#x27;: False, &#x27;server_name&#x27;: &#x27;K&#x27;, &#x27;bpython&#x27;: False, &#x27;nogui&#x27;: False, &#x27;port&#x27;: 8000, &#x27;print_errors&#x27;: False, &#x27;extcron&#x27;: False, &#x27;runcron&#x27;: False, &#x27;run_system_tests&#x27;: False, &#x27;test&#x27;: None, &#x27;folder&#x27;: &#x27;C:\\\\Users\\\\PIP\\\\Documents\\\\web2py\\\\web2py&#x27;, &#x27;config&#x27;: &#x27;&#x27;, &#x27;minthreads&#x27;: None, &#x27;shell&#x27;: None, &#x27;run&#x27;: &#x27;&#x27;, &#x27;log_filename&#x27;: &#x27;httpserver.log&#x27;, &#x27;profiler_dir&#x27;: None, &#x27;args&#x27;: [&#x27;&#x27;], &#x27;socket_timeout&#x27;: 5, &#x27;ssl_ca_certificate&#x27;: None, &#x27;scheduler&#x27;: None, &#x27;interfaces&#x27;: None, &#x27;ssl_private_key&#x27;: &#x27;&#x27;, &#x27;gae&#x27;: None, &#x27;password&#x27;: &#x27;******&#x27;, &#x27;request_queue_size&#x27;: 5, &#x27;ssl_certificate&#x27;: &#x27;&#x27;, &#x27;cronjob&#x27;: False, &#x27;numthreads&#x27;: None, &#x27;quiet&#x27;: False, &#x27;import_models&#x27;: False, &#x27;timeout&#x27;: 10, &#x27;plain&#x27;: False, &#x27;nobanner&#x27;: False}&gt;</div></td></tr><tr><td style="font-weight:bold;vertical-align:top;">db_sessions</td><td style="vertical-align:top;">:</td><td><div>set([])</div></td></tr><tr><td style="font-weight:bold;vertical-align:top;">debugging</td><td style="vertical-align:top;">:</td><td><div>False</div></td></tr><tr><td style="font-weight:bold;vertical-align:top;">gluon_parent</td><td style="vertical-align:top;">:</td><td><div>C:\\Users\\PIP\\Documents\\web2py\\web2py</div></td></tr><tr><td style="font-weight:bold;vertical-align:top;">http_accept</td><td style="vertical-align:top;">:</td><td><div>text/html,application/xhtml+xml,application/xml;q=0.9,*/*;q=0.8</div></td></tr><tr><td style="font-weight:bold;vertical-align:top;">http_accept_encoding</td><td style="vertical-align:top;">:</td><td><div>gzip, deflate</div></td></tr><tr><td style="font-weight:bold;vertical-align:top;">http_accept_language</td><td style="vertical-align:top;">:</td><td><div>en-US,en;q=0.5</div></td></tr><tr><td style="font-weight:bold;vertical-align:top;">http_connection</td><td style="vertical-align:top;">:</td><td><div>keep-alive</div></td></tr><tr><td style="font-weight:bold;vertical-align:top;">http_cookie</td><td style="vertical-align:top;">:</td><td><div>session_id_welcome=127.0.0.1-6fb4205e-c7e6-4c69-9f39-473a82085f18; session_id_admin=127.0.0.1-76f114ff-5702-4857-bab2-9cdc3462480a</div></td></tr><tr><td style="font-weight:bold;vertical-align:top;">http_host</td><td style="vertical-align:top;">:</td><td><div>127.0.0.1:8000</div></td></tr><tr><td style="font-weight:bold;vertical-align:top;">http_referer</td><td style="vertical-align:top;">:</td><td><div>http://127.0.0.1:8000/admin/default/design/ez_wireframe</div></td></tr><tr><td style="font-weight:bold;vertical-align:top;">http_upgrade_insecure_requests</td><td style="vertical-align:top;">:</td><td><div>1</div></td></tr><tr><td style="font-weight:bold;vertical-align:top;">http_user_agent</td><td style="vertical-align:top;">:</td><td><div>Mozilla/5.0 (Windows NT 6.3; WOW64; rv:50.0) Gecko/20100101 Firefox/50.0</div></td></tr><tr><td style="font-weight:bold;vertical-align:top;">is_jython</td><td style="vertical-align:top;">:</td><td><div>False</div></td></tr><tr><td style="font-weight:bold;vertical-align:top;">is_pypy</td><td style="vertical-align:top;">:</td><td><div>False</div></td></tr><tr><td style="font-weight:bold;vertical-align:top;">is_source</td><td style="vertical-align:top;">:</td><td><div>True</div></td></tr><tr><td style="font-weight:bold;vertical-align:top;">local_hosts</td><td style="vertical-align:top;">:</td><td><div><table><tr><td><div>fe80::e831:2ce:cdd8:1272%120</div></td></tr><tr><td><div>169.233.195.213</div></td></tr><tr><td><div>fe80::65bd:cb98:dafb:8a9a%3</div></td></tr><tr><td><div>fe80::5efe:10.35.0.10%8</div></td></tr><tr><td><div>fe80::200:5efe:169.233.195.213%7</div></td></tr><tr><td><div>K</div></td></tr><tr><td><div>::ffff:127.0.0.1</div></td></tr><tr><td><div>::1</div></td></tr><tr><td><div>10.35.0.10</div></td></tr><tr><td><div>fd00:1234::1</div></td></tr><tr><td><div>127.0.0.1</div></td></tr></table></div></td></tr><tr><td style="font-weight:bold;vertical-align:top;">path_info</td><td style="vertical-align:top;">:</td><td><div>/ez_wireframe/appadmin/index</div></td></tr><tr><td style="font-weight:bold;vertical-align:top;">query_string</td><td style="vertical-align:top;">:</td><td><div></div></td></tr><tr><td style="font-weight:bold;vertical-align:top;">remote_addr</td><td style="vertical-align:top;">:</td><td><div>127.0.0.1</div></td></tr><tr><td style="font-weight:bold;vertical-align:top;">remote_port</td><td style="vertical-align:top;">:</td><td><div>2808</div></td></tr><tr><td style="font-weight:bold;vertical-align:top;">request_method</td><td style="vertical-align:top;">:</td><td><div>GET</div></td></tr><tr><td style="font-weight:bold;vertical-align:top;">request_uri</td><td style="vertical-align:top;">:</td><td><div>/ez_wireframe/appadmin/index</div></td></tr><tr><td style="font-weight:bold;vertical-align:top;">script_name</td><td style="vertical-align:top;">:</td><td><div></div></td></tr><tr><td style="font-weight:bold;vertical-align:top;">server_name</td><td style="vertical-align:top;">:</td><td><div>K</div></td></tr><tr><td style="font-weight:bold;vertical-align:top;">server_port</td><td style="vertical-align:top;">:</td><td><div>8000</div></td></tr><tr><td style="font-weight:bold;vertical-align:top;">server_protocol</td><td style="vertical-align:top;">:</td><td><div>HTTP/1.1</div></td></tr><tr><td style="font-weight:bold;vertical-align:top;">server_software</td><td style="vertical-align:top;">:</td><td><div>Rocket 1.2.6</div></td></tr><tr><td style="font-weight:bold;vertical-align:top;">web2py_path</td><td style="vertical-align:top;">:</td><td><div>C:\\Users\\PIP\\Documents\\web2py\\web2py</div></td></tr><tr><td style="font-weight:bold;vertical-align:top;">web2py_version</td><td style="vertical-align:top;">:</td><td><div>2.14.6-stable+timestamp.2016.05.10.00.21.47</div></td></tr><tr><td style="font-weight:bold;vertical-align:top;">wsgi.errors</td><td style="vertical-align:top;">:</td><td><div>&lt;open file &#x27;&lt;stderr&gt;&#x27;, mode &#x27;w&#x27; at 0x0000000001C871E0&gt;</div></td></tr><tr><td style="font-weight:bold;vertical-align:top;">wsgi.file_wrapper</td><td style="vertical-align:top;">:</td><td><div>&lt;class wsgiref.util.FileWrapper at 0x00000000036EAB28&gt;</div></td></tr><tr><td style="font-weight:bold;vertical-align:top;">wsgi.input</td><td style="vertical-align:top;">:</td><td><div>&lt;socket._fileobject object at 0x0000000008B2C048&gt;</div></td></tr><tr><td style="font-weight:bold;vertical-align:top;">wsgi.multiprocess</td><td style="vertical-align:top;">:</td><td><div>False</div></td></tr><tr><td style="font-weight:bold;vertical-align:top;">wsgi.multithread</td><td style="vertical-align:top;">:</td><td><div>True</div></td></tr><tr><td style="font-weight:bold;vertical-align:top;">wsgi.run_once</td><td style="vertical-align:top;">:</td><td><div>False</div></td></tr><tr><td style="font-weight:bold;vertical-align:top;">wsgi.url_scheme</td><td style="vertical-align:top;">:</td><td><div>http</div></td></tr><tr><td style="font-weight:bold;vertical-align:top;">wsgi.version</td><td style="vertical-align:top;">:</td><td><div><table><tr><td><div>1</div></td></tr><tr><td><div>0</div></td></tr></table></div></td></tr><tr><td style="font-weight:bold;vertical-align:top;">wsgi_errors</td><td style="vertical-align:top;">:</td><td><div>&lt;open file &#x27;&lt;stderr&gt;&#x27;, mode &#x27;w&#x27; at 0x0000000001C871E0&gt;</div></td></tr><tr><td style="font-weight:bold;vertical-align:top;">wsgi_file_wrapper</td><td style="vertical-align:top;">:</td><td><div>&lt;class wsgiref.util.FileWrapper at 0x00000000036EAB28&gt;</div></td></tr><tr><td style="font-weight:bold;vertical-align:top;">wsgi_input</td><td style="vertical-align:top;">:</td><td><div>&lt;socket._fileobject object at 0x0000000008B2C048&gt;</div></td></tr><tr><td style="font-weight:bold;vertical-align:top;">wsgi_multiprocess</td><td style="vertical-align:top;">:</td><td><div>False</div></td></tr><tr><td style="font-weight:bold;vertical-align:top;">wsgi_multithread</td><td style="vertical-align:top;">:</td><td><div>True</div></td></tr><tr><td style="font-weight:bold;vertical-align:top;">wsgi_run_once</td><td style="vertical-align:top;">:</td><td><div>False</div></td></tr><tr><td style="font-weight:bold;vertical-align:top;">wsgi_url_scheme</td><td style="vertical-align:top;">:</td><td><div>http</div></td></tr><tr><td style="font-weight:bold;vertical-align:top;">wsgi_version</td><td style="vertical-align:top;">:</td><td><div><table><tr><td><div>1</div></td></tr><tr><td><div>0</div></td></tr></table></div></td></tr></table></div></td></tr><tr><td style="font-weight:bold;vertical-align:top;">extension</td><td style="vertical-align:top;">:</td><td><div>html</div></td></tr><tr><td style="font-weight:bold;vertical-align:top;">folder</td><td style="vertical-align:top;">:</td><td><div>C:\\Users\\PIP\\Documents\\web2py\\web2py\\applications\\ez_wireframe\\</div></td></tr><tr><td style="font-weight:bold;vertical-align:top;">function</td><td style="vertical-align:top;">:</td><td><div>index</div></td></tr><tr><td style="font-weight:bold;vertical-align:top;">global_settings</td><td style="vertical-align:top;">:</td><td><div><table><tr><td style="font-weight:bold;vertical-align:top;">app_folders</td><td style="vertical-align:top;">:</td><td><div>set([&#x27;C:\\\\Users\\\\PIP\\\\Documents\\\\web2py\\\\web2py\\\\applications\\\\admin\\\\&#x27;, &#x27;C:\\\\Users\\\\PIP\\\\Documents\\\\web2py\\\\web2py\\\\applications\\\\ez_wireframe\\\\&#x27;, &#x27;C:\\\\Users\\\\PIP\\\\Documents\\\\web2py\\\\web2py\\\\applications\\\\welcome\\\\&#x27;])</div></td></tr><tr><td style="font-weight:bold;vertical-align:top;">applications_parent</td><td style="vertical-align:top;">:</td><td><div>C:\\Users\\PIP\\Documents\\web2py\\web2py</div></td></tr><tr><td style="font-weight:bold;vertical-align:top;">cmd_args</td><td style="vertical-align:top;">:</td><td><div><table></table></div></td></tr><tr><td style="font-weight:bold;vertical-align:top;">cmd_options</td><td style="vertical-align:top;">:</td><td><div>&lt;Values at 0x378ce88: {&#x27;verbose&#x27;: False, &#x27;ip&#x27;: &#x27;127.0.0.1&#x27;, &#x27;debuglevel&#x27;: 30, &#x27;with_scheduler&#x27;: False, &#x27;shutdown_timeout&#x27;: 5, &#x27;taskbar&#x27;: False, &#x27;with_coverage&#x27;: False, &#x27;pid_filename&#x27;: &#x27;httpserver.pid&#x27;, &#x27;maxthreads&#x27;: None, &#x27;softcron&#x27;: False, &#x27;server_name&#x27;: &#x27;K&#x27;, &#x27;bpython&#x27;: False, &#x27;nogui&#x27;: False, &#x27;port&#x27;: 8000, &#x27;print_errors&#x27;: False, &#x27;extcron&#x27;: False, &#x27;runcron&#x27;: False, &#x27;run_system_tests&#x27;: False, &#x27;test&#x27;: None, &#x27;folder&#x27;: &#x27;C:\\\\Users\\\\PIP\\\\Documents\\\\web2py\\\\web2py&#x27;, &#x27;config&#x27;: &#x27;&#x27;, &#x27;minthreads&#x27;: None, &#x27;shell&#x27;: None, &#x27;run&#x27;: &#x27;&#x27;, &#x27;log_filename&#x27;: &#x27;httpserver.log&#x27;, &#x27;profiler_dir&#x27;: None, &#x27;args&#x27;: [&#x27;&#x27;], &#x27;socket_timeout&#x27;: 5, &#x27;ssl_ca_certificate&#x27;: None, &#x27;scheduler&#x27;: None, &#x27;interfaces&#x27;: None, &#x27;ssl_private_key&#x27;: &#x27;&#x27;, &#x27;gae&#x27;: None, &#x27;password&#x27;: &#x27;******&#x27;, &#x27;request_queue_size&#x27;: 5, &#x27;ssl_certificate&#x27;: &#x27;&#x27;, &#x27;cronjob&#x27;: False, &#x27;numthreads&#x27;: None, &#x27;quiet&#x27;: False, &#x27;import_models&#x27;: False, &#x27;timeout&#x27;: 10, &#x27;plain&#x27;: False, &#x27;nobanner&#x27;: False}&gt;</div></td></tr><tr><td style="font-weight:bold;vertical-align:top;">db_sessions</td><td style="vertical-align:top;">:</td><td><div>set([])</div></td></tr><tr><td style="font-weight:bold;vertical-align:top;">debugging</td><td style="vertical-align:top;">:</td><td><div>False</div></td></tr><tr><td style="font-weight:bold;vertical-align:top;">gluon_parent</td><td style="vertical-align:top;">:</td><td><div>C:\\Users\\PIP\\Documents\\web2py\\web2py</div></td></tr><tr><td style="font-weight:bold;vertical-align:top;">is_jython</td><td style="vertical-align:top;">:</td><td><div>False</div></td></tr><tr><td style="font-weight:bold;vertical-align:top;">is_pypy</td><td style="vertical-align:top;">:</td><td><div>False</div></td></tr><tr><td style="font-weight:bold;vertical-align:top;">is_source</td><td style="vertical-align:top;">:</td><td><div>True</div></td></tr><tr><td style="font-weight:bold;vertical-align:top;">local_hosts</td><td style="vertical-align:top;">:</td><td><div><table><tr><td><div>fe80::e831:2ce:cdd8:1272%120</div></td></tr><tr><td><div>169.233.195.213</div></td></tr><tr><td><div>fe80::65bd:cb98:dafb:8a9a%3</div></td></tr><tr><td><div>fe80::5efe:10.35.0.10%8</div></td></tr><tr><td><div>fe80::200:5efe:169.233.195.213%7</div></td></tr><tr><td><div>K</div></td></tr><tr><td><div>::ffff:127.0.0.1</div></td></tr><tr><td><div>::1</div></td></tr><tr><td><div>10.35.0.10</div></td></tr><tr><td><div>fd00:1234::1</div></td></tr><tr><td><div>127.0.0.1</div></td></tr></table></div></td></tr><tr><td style="font-weight:bold;vertical-align:top;">web2py_version</td><td style="vertical-align:top;">:</td><td><div>2.14.6-stable+timestamp.2016.05.10.00.21.47</div></td></tr></table></div></td></tr><tr><td style="font-weight:bold;vertical-align:top;">is_https</td><td style="vertical-align:top;">:</td><td><div>False</div></td></tr><tr><td style="font-weight:bold;vertical-align:top;">is_local</td><td style="vertical-align:top;">:</td><td><div>True</div></td></tr><tr><td style="font-weight:bold;vertical-align:top;">is_restful</td><td style="vertical-align:top;">:</td><td><div>False</div></td></tr><tr><td style="font-weight:bold;vertical-align:top;">is_scheduler</td><td style="vertical-align:top;">:</td><td><div>False</div></td></tr><tr><td style="font-weight:bold;vertical-align:top;">is_shell</td><td style="vertical-align:top;">:</td><td><div>False</div></td></tr><tr><td style="font-weight:bold;vertical-align:top;">now</td><td style="vertical-align:top;">:</td><td><div>datetime.datetime(2016, 11, 27, 17, 43, 12, 724000)</div></td></tr><tr><td style="font-weight:bold;vertical-align:top;">raw_args</td><td style="vertical-align:top;">:</td><td><div></div></td></tr><tr><td style="font-weight:bold;vertical-align:top;">raw_extension</td><td style="vertical-align:top;">:</td><td><div>None</div></td></tr><tr><td style="font-weight:bold;vertical-align:top;">url</td><td style="vertical-align:top;">:</td><td><div>/ez_wireframe/appadmin/index</div></td></tr><tr><td style="font-weight:bold;vertical-align:top;">utcnow</td><td style="vertical-align:top;">:</td><td><div>datetime.datetime(2016, 11, 28, 1, 43, 12, 724000)</div></td></tr><tr><td style="font-weight:bold;vertical-align:top;">wsgi</td><td style="vertical-align:top;">:</td><td><div>&lt;gluon.main.LazyWSGI object at 0x0000000004496438&gt;</div></td></tr></table></div>'
tRp58
sS'frames'
p59
(lp60
(dp61
S'file'
p62
S'C:\\Users\\PIP\\Documents\\web2py\\web2py\\gluon\\restricted.py'
p63
sS'dump'
p64
(dp65
S'environment'
p66
S"{'A': <class 'gluon.html.A'>, 'ANY_OF': <class 'gluon.validators.ANY_OF'>, 'ASSIGNJS': <function ASSIGNJS>, 'AppConfig': <function AppConfig>, 'Auth': <class 'gluon.tools.Auth'>, 'B': <class 'gluon.html.B'>, 'BEAUTIFY': <class 'gluon.html.BEAUTIFY'>, 'BODY': <class 'gluon.html.BODY'>, 'BR': <class 'gluon.html.BR'>, 'BUTTON': <class 'gluon.html.BUTTON'>, ...}"
p67
sS'ccode'
p68
S'<code object <module> at 0000000008C29A30, file ...ations\\ez_wireframe\\views\\appadmin.html", line 1>'
p69
ssS'lnum'
p70
I227
sS'lines'
p71
(dp72
I224
S'            ccode = code'
p73
sI225
S'        else:'
p74
sI226
S'            ccode = compile2(code, layer)'
p75
sI227
S'        exec ccode in environment'
p76
sI228
S'    except HTTP:'
p77
sI229
S'        raise'
p78
sI230
S'    except RestrictedError:'
p79
sI231
S'        # do not encapsulate (obfuscate) the original RestrictedError'
p80
sI222
S'    try:'
p81
sI223
S'        if isinstance(code, types.CodeType):'
p82
ssS'call'
p83
S'(code=\'response.write(\\\'<!DOCTYPE html>\\\\r\\\\n<html lang="e...scape=False)\\nresponse.write(\\\'\\\\r\\\\n\\\', escape=False)\', environment={\'A\': <class \'gluon.html.A\'>, \'ANY_OF\': <class \'gluon.validators.ANY_OF\'>, \'ASSIGNJS\': <function ASSIGNJS>, \'AppConfig\': <function AppConfig>, \'Auth\': <class \'gluon.tools.Auth\'>, \'B\': <class \'gluon.html.B\'>, \'BEAUTIFY\': <class \'gluon.html.BEAUTIFY\'>, \'BODY\': <class \'gluon.html.BODY\'>, \'BR\': <class \'gluon.html.BR\'>, \'BUTTON\': <class \'gluon.html.BUTTON\'>, ...}, layer=r\'C:\\Users\\PIP\\Documents\\web2py\\web2py\\applications\\ez_wireframe\\views\\appadmin.html\')'
p84
sS'func'
p85
S'restricted'
p86
sa(dp87
g62
S'C:\\Users\\PIP\\Documents\\web2py\\web2py\\applications\\ez_wireframe\\views\\appadmin.html'
p88
sg64
(dp89
S'script'
p90
S'undefined'
p91
ssg70
I2
sg71
(dp92
I1
S'response.write(\'<!DOCTYPE html>\\r\\n<html lang="en">\\r\\n\\r\\n<head>\\r\\n\\r\\n  <meta charset="utf-8">\\r\\n  <meta http-equiv="X-UA-Compatible" content="IE=edge">\\r\\n  <meta name="viewport" content="width=device-width, initial-scale=1">\\r\\n  <meta name="description" content="">\\r\\n  <meta name="author" content="">\\r\\n\\r\\n <title>\', escape=False)'
p93
sI2
S'response.write(title)'
p94
sI3
S'response.write(\'</title>\\r\\n\\r\\n  <!-- Bootstrap Core CSS -->\\r\\n  <link rel="stylesheet" href="\', escape=False)'
p95
sI4
S"response.write(URL('static','css/bootstrap.min.css'))"
p96
sI5
S'response.write(\'"/>\\r\\n\\r\\n  <!-- Slick CSS -->\\r\\n  <link rel="stylesheet" href="\', escape=False)'
p97
sI6
S"response.write(URL('static','css/slick.css'))"
p98
sI7
S'response.write(\'"/>\\r\\n  <link rel="stylesheet" href="\', escape=False)'
p99
sI8
S"response.write(URL('static','css/slick-theme.css'))"
p100
sI9
S'response.write(\'"/>\\r\\n\\r\\n  <!-- Custom Fonts -->\\r\\n  <link rel="stylesheet" href="\', escape=False)'
p101
sI10
S"response.write(URL('static','vendor/font-awesome/css/font-awesome.min.css'))"
p102
sI11
S'response.write(\'"/>\\r\\n  <link href=\\\'https://fonts.googleapis.com/css?family=Open+Sans:300italic,400italic,600italic,700italic,800italic,400,300,600,700,800\\\' rel=\\\'stylesheet\\\' type=\\\'text/css\\\'>\\r\\n  <link href=\\\'https://fonts.googleapis.com/css?family=Merriweather:400,300,300italic,400italic,700,700italic,900,900italic\\\' rel=\\\'stylesheet\\\' type=\\\'text/css\\\'>\\r\\n\\r\\n  <!-- Plugin CSS -->\\r\\n  <link rel="stylesheet" href="\', escape=False)'
p103
sI12
S"response.write(URL('static','vendor/magnific-popup/magnific-popup.css'))"
p104
ssg83
S'()'
p105
sg85
S'<module>'
p106
sasS'pyver'
p107
S'Python 2.7: C:\\Python27\\python.exe (prefix: C:\\Python27)'
p108
sS'session'
p109
g57
(S's\x1a\x00\x00\x00<div><table></table></div>'
tRp110
sS'etype'
p111
S"<type 'exceptions.NameError'>"
p112
sS'date'
p113
S'Sun Nov 27 17:43:12 2016'
p114
sS'response'
p115
g57
(S'sr\x1e\x00\x00<div><table><tr><td style="font-weight:bold;vertical-align:top;">body</td><td style="vertical-align:top;">:</td><td><div>&lt;cStringIO.StringO object at 0x0000000004496848&gt;</div></td></tr><tr><td style="font-weight:bold;vertical-align:top;">cookies</td><td style="vertical-align:top;">:</td><td><div><table><tr><td style="font-weight:bold;vertical-align:top;">session_id_ez_wireframe</td><td style="vertical-align:top;">:</td><td><div>127.0.0.1-74eb82af-25c5-4ac1-8d59-d16c5e68c739<table><tr><td style="font-weight:bold;vertical-align:top;">comment</td><td style="vertical-align:top;">:</td><td><div></div></td></tr><tr><td style="font-weight:bold;vertical-align:top;">domain</td><td style="vertical-align:top;">:</td><td><div></div></td></tr><tr><td style="font-weight:bold;vertical-align:top;">expires</td><td style="vertical-align:top;">:</td><td><div></div></td></tr><tr><td style="font-weight:bold;vertical-align:top;">httponly</td><td style="vertical-align:top;">:</td><td><div></div></td></tr><tr><td style="font-weight:bold;vertical-align:top;">max-age</td><td style="vertical-align:top;">:</td><td><div></div></td></tr><tr><td style="font-weight:bold;vertical-align:top;">path</td><td style="vertical-align:top;">:</td><td><div>/</div></td></tr><tr><td style="font-weight:bold;vertical-align:top;">secure</td><td style="vertical-align:top;">:</td><td><div></div></td></tr><tr><td style="font-weight:bold;vertical-align:top;">version</td><td style="vertical-align:top;">:</td><td><div></div></td></tr></table></div></td></tr></table></div></td></tr><tr><td style="font-weight:bold;vertical-align:top;">delimiters</td><td style="vertical-align:top;">:</td><td><div><table><tr><td><div>{{</div></td></tr><tr><td><div>}}</div></td></tr></table></div></td></tr><tr><td style="font-weight:bold;vertical-align:top;">files</td><td style="vertical-align:top;">:</td><td><div><table></table></div></td></tr><tr><td style="font-weight:bold;vertical-align:top;">flash</td><td style="vertical-align:top;">:</td><td><div></div></td></tr><tr><td style="font-weight:bold;vertical-align:top;">form_label_separator</td><td style="vertical-align:top;">:</td><td><div></div></td></tr><tr><td style="font-weight:bold;vertical-align:top;">formstyle</td><td style="vertical-align:top;">:</td><td><div>bootstrap3_inline</div></td></tr><tr><td style="font-weight:bold;vertical-align:top;">generic_patterns</td><td style="vertical-align:top;">:</td><td><div><table><tr><td><div>*</div></td></tr></table></div></td></tr><tr><td style="font-weight:bold;vertical-align:top;">google_analytics_id</td><td style="vertical-align:top;">:</td><td><div>None</div></td></tr><tr><td style="font-weight:bold;vertical-align:top;">headers</td><td style="vertical-align:top;">:</td><td><div><table><tr><td style="font-weight:bold;vertical-align:top;">X-Powered-By</td><td style="vertical-align:top;">:</td><td><div>web2py</div></td></tr></table></div></td></tr><tr><td style="font-weight:bold;vertical-align:top;">logo</td><td style="vertical-align:top;">:</td><td><div><a class="navbar-brand" href="http://www.web2py.com/" id="web2py-logo"><b>web<span>2</span>py</b>&trade;&nbsp;</a></div></td></tr><tr><td style="font-weight:bold;vertical-align:top;">menu</td><td style="vertical-align:top;">:</td><td><div><table><tr><td><div><table><tr><td><div>design</div></td></tr><tr><td><div>False</div></td></tr><tr><td><div>/admin/default/design/ez_wireframe</div></td></tr></table></div></td></tr><tr><td><div><table><tr><td><div>db</div></td></tr><tr><td><div>False</div></td></tr><tr><td><div>/ez_wireframe/appadmin/index</div></td></tr></table></div></td></tr><tr><td><div><table><tr><td><div>state</div></td></tr><tr><td><div>False</div></td></tr><tr><td><div>/ez_wireframe/appadmin/state</div></td></tr></table></div></td></tr><tr><td><div><table><tr><td><div>cache</div></td></tr><tr><td><div>False</div></td></tr><tr><td><div>/ez_wireframe/appadmin/ccache</div></td></tr></table></div></td></tr></table></div></td></tr><tr><td style="font-weight:bold;vertical-align:top;">meta</td><td style="vertical-align:top;">:</td><td><div><table><tr><td style="font-weight:bold;vertical-align:top;">author</td><td style="vertical-align:top;">:</td><td><div>Your Name &lt;you@example.com&gt;</div></td></tr><tr><td style="font-weight:bold;vertical-align:top;">description</td><td style="vertical-align:top;">:</td><td><div>a cool new app</div></td></tr><tr><td style="font-weight:bold;vertical-align:top;">generator</td><td style="vertical-align:top;">:</td><td><div>Web2py Web Framework</div></td></tr><tr><td style="font-weight:bold;vertical-align:top;">keywords</td><td style="vertical-align:top;">:</td><td><div><table><tr><td><div>web2py</div></td></tr><tr><td><div>python</div></td></tr><tr><td><div>framework</div></td></tr></table></div></td></tr></table></div></td></tr><tr><td style="font-weight:bold;vertical-align:top;">models_to_run</td><td style="vertical-align:top;">:</td><td><div><table><tr><td><div>^\\w+\\.py$</div></td></tr><tr><td><div>^appadmin/\\w+\\.py$</div></td></tr><tr><td><div>^appadmin/index/\\w+\\.py$</div></td></tr></table></div></td></tr><tr><td style="font-weight:bold;vertical-align:top;">postprocessing</td><td style="vertical-align:top;">:</td><td><div><table></table></div></td></tr><tr><td style="font-weight:bold;vertical-align:top;">session_client</td><td style="vertical-align:top;">:</td><td><div>127.0.0.1</div></td></tr><tr><td style="font-weight:bold;vertical-align:top;">session_cookie_compression_level</td><td style="vertical-align:top;">:</td><td><div>None</div></td></tr><tr><td style="font-weight:bold;vertical-align:top;">session_cookie_expires</td><td style="vertical-align:top;">:</td><td><div>None</div></td></tr><tr><td style="font-weight:bold;vertical-align:top;">session_data_name</td><td style="vertical-align:top;">:</td><td><div>session_data_ez_wireframe</div></td></tr><tr><td style="font-weight:bold;vertical-align:top;">session_file</td><td style="vertical-align:top;">:</td><td><div>None</div></td></tr><tr><td style="font-weight:bold;vertical-align:top;">session_filename</td><td style="vertical-align:top;">:</td><td><div>C:\\Users\\PIP\\Documents\\web2py\\web2py\\applications\\ez_wireframe\\sessions\\127.0.0.1-74eb82af-25c5-4ac1-8d59-d16c5e68c739</div></td></tr><tr><td style="font-weight:bold;vertical-align:top;">session_hash</td><td style="vertical-align:top;">:</td><td><div>c0762cbf4baf7f9af97c051e7fcb8083</div></td></tr><tr><td style="font-weight:bold;vertical-align:top;">session_id</td><td style="vertical-align:top;">:</td><td><div>127.0.0.1-74eb82af-25c5-4ac1-8d59-d16c5e68c739</div></td></tr><tr><td style="font-weight:bold;vertical-align:top;">session_id_name</td><td style="vertical-align:top;">:</td><td><div>session_id_ez_wireframe</div></td></tr><tr><td style="font-weight:bold;vertical-align:top;">session_masterapp</td><td style="vertical-align:top;">:</td><td><div>ez_wireframe</div></td></tr><tr><td style="font-weight:bold;vertical-align:top;">session_new</td><td style="vertical-align:top;">:</td><td><div>True</div></td></tr><tr><td style="font-weight:bold;vertical-align:top;">session_storage_type</td><td style="vertical-align:top;">:</td><td><div>file</div></td></tr><tr><td style="font-weight:bold;vertical-align:top;">status</td><td style="vertical-align:top;">:</td><td><div>200</div></td></tr><tr><td style="font-weight:bold;vertical-align:top;">subtitle</td><td style="vertical-align:top;">:</td><td><div>Database Administration (appadmin)</div></td></tr><tr><td style="font-weight:bold;vertical-align:top;">title</td><td style="vertical-align:top;">:</td><td><div>Ez Wireframe</div></td></tr><tr><td style="font-weight:bold;vertical-align:top;">view</td><td style="vertical-align:top;">:</td><td><div>appadmin.html</div></td></tr></table></div>'
tRp116
sS'locals'
p117
(dp118
S'Service'
p119
S"<class 'gluon.tools.Service'>"
p120
sS'OBJECT'
p121
S"<class 'gluon.html.OBJECT'>"
p122
sS'SQLDB'
p123
S"<class 'pydal.base.DAL'>"
p124
sg109
S'<Storage {}>'
p125
sS'LINK'
p126
S"<class 'gluon.html.LINK'>"
p127
sS'BR'
p128
S"<class 'gluon.html.BR'>"
p129
sS'local_import'
p130
S'<function <lambda>>'
p131
sS'OPTGROUP'
p132
S"<class 'gluon.html.OPTGROUP'>"
p133
sS'__package__'
p134
S'None'
p135
sS'PRE'
p136
S"<class 'gluon.html.PRE'>"
p137
sS'IS_INT_IN_RANGE'
p138
S"<class 'gluon.validators.IS_INT_IN_RANGE'>"
p139
sS'IS_LOWER'
p140
S"<class 'gluon.validators.IS_LOWER'>"
p141
sS'IS_STRONG'
p142
S"<class 'gluon.validators.IS_STRONG'>"
p143
sS'cache'
p144
S'<gluon.cache.Cache object>'
p145
sS'IS_IN_DB'
p146
S"<class 'gluon.validators.IS_IN_DB'>"
p147
sS'TAG'
p148
S'<gluon.html.__TAG__ object>'
p149
sS'SQLField'
p150
S"<class 'pydal.objects.Field'>"
p151
sS'mail'
p152
S'<gluon.tools.Mail object>'
p153
sS'BODY'
p154
S"<class 'gluon.html.BODY'>"
p155
sS'IS_DATE_IN_RANGE'
p156
S"<class 'gluon.validators.IS_DATE_IN_RANGE'>"
p157
sS'IFRAME'
p158
S"<class 'gluon.html.IFRAME'>"
p159
sS'URL'
p160
S'<function URL>'
p161
sS'__file__'
p162
S"r'C:\\Users\\PIP\\Documents\\web2py\\web2py\\applications\\ez_wireframe\\views\\appadmin.html'"
p163
sS'db'
p164
S'<DAL uri="sqlite://storage.sqlite">'
p165
sS'auth'
p166
S'<gluon.tools.Auth object>'
p167
sS'P'
S"<class 'gluon.html.P'>"
p168
sS'TFOOT'
p169
S"<class 'gluon.html.TFOOT'>"
p170
sS'XHTML'
p171
S"<class 'gluon.html.XHTML'>"
p172
sS'ON'
p173
S'True'
p174
sS'OL'
p175
S"<class 'gluon.html.OL'>"
p176
sS'TEXTAREA'
p177
S"<class 'gluon.html.TEXTAREA'>"
p178
sS'MENU'
p179
S"<class 'gluon.html.MENU'>"
p180
sS'IS_IMAGE'
p181
S"<class 'gluon.validators.IS_IMAGE'>"
p182
sS'EM'
p183
S"<class 'gluon.html.EM'>"
p184
sS'CODE'
p185
S"<class 'gluon.html.CODE'>"
p186
sS'HTTP'
p187
S"<class 'gluon.http.HTTP'>"
p188
sS'HR'
p189
S"<class 'gluon.html.HR'>"
p190
sS'IS_DATETIME'
p191
S"<class 'gluon.validators.IS_DATETIME'>"
p192
sS'STYLE'
p193
S"<class 'gluon.html.STYLE'>"
p194
sS'LABEL'
p195
S"<class 'gluon.html.LABEL'>"
p196
sS'CLEANUP'
p197
S"<class 'gluon.validators.CLEANUP'>"
p198
sS'plugins'
p199
S'<gluon.tools.PluginManager object>'
p200
sS'SELECT'
p201
S"<class 'gluon.html.SELECT'>"
p202
sS'CENTER'
p203
S"<class 'gluon.html.CENTER'>"
p204
sS'Auth'
p205
S"<class 'gluon.tools.Auth'>"
p206
sS'DEVELOPMENT_MENU'
p207
g174
sS'__builtins__'
p208
S"{'ArithmeticError': <type 'exceptions.ArithmeticError'>, 'AssertionError': <type 'exceptions.AssertionError'>, 'AttributeError': <type 'exceptions.AttributeError'>, 'BaseException': <type 'exceptions.BaseException'>, 'BufferError': <type 'exceptions.BufferError'>, 'BytesWarning': <type 'exceptions.BytesWarning'>, 'DeprecationWarning': <type 'exceptions.DeprecationWarning'>, 'EOFError': <type 'exceptions.EOFError'>, 'Ellipsis': Ellipsis, 'EnvironmentError': <type 'exceptions.EnvironmentError'>, ...}"
p209
sS'HTML'
p210
S"<class 'gluon.html.HTML'>"
p211
sS'SQLFORM'
p212
S"<class 'gluon.sqlhtml.SQLFORM'>"
p213
sS'LOAD'
p214
S'<function LOAD>'
p215
sS'redirect'
p216
S'<function redirect>'
p217
sS'FIELDSET'
p218
S"<class 'gluon.html.FIELDSET'>"
p219
sS'IS_EQUAL_TO'
p220
S"<class 'gluon.validators.IS_EQUAL_TO'>"
p221
sS'embed64'
p222
S'<function embed64>'
p223
sS'IS_LIST_OF'
p224
S"<class 'gluon.validators.IS_LIST_OF'>"
p225
sS'INPUT'
p226
S"<class 'gluon.html.INPUT'>"
p227
sS'EMBED'
p228
S"<class 'gluon.html.EMBED'>"
p229
sS'_'
S'<function _>'
p230
sS'myconf'
p231
S"{'forms': {'formstyle': 'bootstrap3_inline', 'se...': {'names': 'localhost:*, 127.0.0.1:*, *:*, *'}}"
p232
sS'H2'
p233
S"<class 'gluon.html.H2'>"
p234
sS'H3'
p235
S"<class 'gluon.html.H3'>"
p236
sS'AppConfig'
p237
S'<function AppConfig>'
p238
sS'H1'
p239
S"<class 'gluon.html.H1'>"
p240
sS'H6'
p241
S"<class 'gluon.html.H6'>"
p242
sS'H4'
p243
S"<class 'gluon.html.H4'>"
p244
sS'H5'
p245
S"<class 'gluon.html.H5'>"
p246
sS'UL'
p247
S"<class 'gluon.html.UL'>"
p248
sS'IS_UPPER'
p249
S"<class 'gluon.validators.IS_UPPER'>"
p250
sS'xmlescape'
p251
S'<function xmlescape>'
p252
sS'IS_TIME'
p253
S"<class 'gluon.validators.IS_TIME'>"
p254
sS'OPTION'
p255
S"<class 'gluon.html.OPTION'>"
p256
sS'TITLE'
p257
S"<class 'gluon.html.TITLE'>"
p258
sS'CRYPT'
p259
S"<class 'gluon.validators.CRYPT'>"
p260
sS'IS_EMPTY_OR'
p261
S"<class 'gluon.validators.IS_EMPTY_OR'>"
p262
sS'MARKMIN'
p263
S"<class 'gluon.html.MARKMIN'>"
p264
sS'__name__'
p265
S"'__restricted__'"
p266
sS'STRONG'
p267
S"<class 'gluon.html.STRONG'>"
p268
sS'COL'
p269
S"<class 'gluon.html.COL'>"
p270
sS'service'
p271
S'<gluon.tools.Service object>'
p272
sS'SCRIPT'
p273
S"<class 'gluon.html.SCRIPT'>"
p274
sS'TABLE'
p275
S"<class 'gluon.html.TABLE'>"
p276
sS'IS_IPV4'
p277
S"<class 'gluon.validators.IS_IPV4'>"
p278
sS'IS_LENGTH'
p279
S"<class 'gluon.validators.IS_LENGTH'>"
p280
sS'IS_IPV6'
p281
S"<class 'gluon.validators.IS_IPV6'>"
p282
sS'XML'
p283
S"<class 'gluon.html.XML'>"
p284
sS'B'
S"<class 'gluon.html.B'>"
p285
sS'IMG'
p286
S"<class 'gluon.html.IMG'>"
p287
sS'SQLTABLE'
p288
S"<class 'gluon.sqlhtml.SQLTABLE'>"
p289
sS'IS_MATCH'
p290
S"<class 'gluon.validators.IS_MATCH'>"
p291
sS'IS_ALPHANUMERIC'
p292
S"<class 'gluon.validators.IS_ALPHANUMERIC'>"
p293
sS'SPAN'
p294
S"<class 'gluon.html.SPAN'>"
p295
sS'IS_JSON'
p296
S"<class 'gluon.validators.IS_JSON'>"
p297
sS'IS_IPADDRESS'
p298
S"<class 'gluon.validators.IS_IPADDRESS'>"
p299
sS'IS_SLUG'
p300
S"<class 'gluon.validators.IS_SLUG'>"
p301
sS'BEAUTIFY'
p302
S"<class 'gluon.html.BEAUTIFY'>"
p303
sS'META'
p304
S"<class 'gluon.html.META'>"
p305
sS'BUTTON'
p306
S"<class 'gluon.html.BUTTON'>"
p307
sS'IS_DATE'
p308
S"<class 'gluon.validators.IS_DATE'>"
p309
sS'IS_EMAIL'
p310
S"<class 'gluon.validators.IS_EMAIL'>"
p311
sS'IS_NOT_EMPTY'
p312
S"<class 'gluon.validators.IS_NOT_EMPTY'>"
p313
sS'IS_FLOAT_IN_RANGE'
p314
S"<class 'gluon.validators.IS_FLOAT_IN_RANGE'>"
p315
sS'TBODY'
p316
S"<class 'gluon.html.TBODY'>"
p317
sS'CAT'
p318
S"<class 'gluon.html.CAT'>"
p319
sS'Field'
p320
S"<class 'pydal.objects.Field'>"
p321
sS'IS_LIST_OF_EMAILS'
p322
S"<class 'gluon.validators.IS_LIST_OF_EMAILS'>"
p323
sS'DIV'
p324
S"<class 'gluon.html.DIV'>"
p325
sS'LEGEND'
p326
S"<class 'gluon.html.LEGEND'>"
p327
sS'COLGROUP'
p328
S"<class 'gluon.html.COLGROUP'>"
p329
sS'DAL'
p330
S"<class 'pydal.base.DAL'>"
p331
sS'ASSIGNJS'
p332
S'<function ASSIGNJS>'
p333
sS'TR'
p334
S"<class 'gluon.html.TR'>"
p335
sS'LI'
p336
S"<class 'gluon.html.LI'>"
p337
sS'TH'
p338
S"<class 'gluon.html.TH'>"
p339
sS'TD'
p340
S"<class 'gluon.html.TD'>"
p341
sS'PluginManager'
p342
S"<class 'gluon.tools.PluginManager'>"
p343
sS'IS_URL'
p344
S"<class 'gluon.validators.IS_URL'>"
p345
sS'A'
S"<class 'gluon.html.A'>"
p346
sS'HEAD'
p347
S"<class 'gluon.html.HEAD'>"
p348
sS'IS_DATETIME_IN_RANGE'
p349
S"<class 'gluon.validators.IS_DATETIME_IN_RANGE'>"
p350
sS'FORM'
p351
S"<class 'gluon.html.FORM'>"
p352
sS'I'
S"<class 'gluon.html.I'>"
p353
sS'IS_NOT_IN_DB'
p354
S"<class 'gluon.validators.IS_NOT_IN_DB'>"
p355
sg115
S"<Storage {'body': <cStringIO.StringO object at 0...at 0x0000000003F9DDD8>, 'view': 'appadmin.html'}>"
p356
sS'THEAD'
p357
S"<class 'gluon.html.THEAD'>"
p358
sS'ANY_OF'
p359
S"<class 'gluon.validators.ANY_OF'>"
p360
sS'IS_NULL_OR'
p361
S"<class 'gluon.validators.IS_EMPTY_OR'>"
p362
sg56
S"<Storage {'_vars': None, 'function': 'index', 'c...\\\\web2py\\\\web2py\\\\applications\\\\ez_wireframe\\\\'}>"
p363
sS'IS_EXPR'
p364
S"<class 'gluon.validators.IS_EXPR'>"
p365
sS'T'
S'<gluon.languages.translator object>'
p366
sS'IS_IN_SET'
p367
S"<class 'gluon.validators.IS_IN_SET'>"
p368
sS'IS_UPLOAD_FILENAME'
p369
S"<class 'gluon.validators.IS_UPLOAD_FILENAME'>"
p370
sS'databases'
p371
S'{\'db\': <DAL uri="sqlite://storage.sqlite">}'
p372
sS'TT'
p373
S"<class 'gluon.html.TT'>"
p374
sS'IS_DECIMAL_IN_RANGE'
p375
S"<class 'gluon.validators.IS_DECIMAL_IN_RANGE'>"
p376
sssS'traceback'
p377
S'Traceback (most recent call last):\n  File "C:\\Users\\PIP\\Documents\\web2py\\web2py\\gluon\\restricted.py", line 227, in restricted\n    exec ccode in environment\n  File "C:\\Users\\PIP\\Documents\\web2py\\web2py\\applications\\ez_wireframe\\views\\appadmin.html", line 2, in <module>\n    <script><!--\nNameError: name \'title\' is not defined\n'
p378
s.